; Function Attrs: nounwind uwtable
define range(i32 -1, 1) i32 @H5P_get_nprops_pclass(ptr noundef readonly captures(none) %0, ptr noundef writeonly captures(none) %1, i1 noundef zeroext %2) local_unnamed_addr #0 {
  %4 = load i8, ptr @H5P_init_g, align 1, !tbaa !3, !range !7, !noundef !8
  %5 = trunc nuw i8 %4 to i1
  %6 = load i8, ptr @H5_libterm_g, align 1, !range !7
  %7 = trunc nuw i8 %6 to i1
  %8 = select i1 %5, i1 true, i1 %7
  br i1 %8, label %16, label %9, !prof !9

9:                                                ; preds = %3
  store i8 1, ptr @H5P_init_g, align 1, !tbaa !3
  %10 = tail call i32 @H5P__init_package()
  %11 = icmp slt i32 %10, 0
  br i1 %11, label %12, label %._crit_edge

._crit_edge:                                      ; preds = %9
  %.pre = load i8, ptr @H5P_init_g, align 1, !tbaa !3, !range !7
  %.pre11 = load i8, ptr @H5_libterm_g, align 1, !range !7
  %.pre12 = trunc nuw i8 %.pre to i1
  %.pre13 = trunc nuw i8 %.pre11 to i1
  br label %16

12:                                               ; preds = %9
  store i8 0, ptr @H5P_init_g, align 1, !tbaa !3
  %13 = load i64, ptr @H5E_FUNC_g, align 8, !tbaa !10
  %14 = load i64, ptr @H5E_CANTINIT_g, align 8, !tbaa !10
  %15 = tail call i32 (ptr, ptr, i32, i64, i64, ptr, ...) @H5E_printf_stack(ptr noundef nonnull @.str.7, ptr noundef nonnull @__func__.H5P_get_nprops_pclass, i32 noundef 3628, i64 noundef %13, i64 noundef %14, ptr noundef nonnull @.str.8) #14
  br label %.loopexit

16:                                               ; preds = %._crit_edge, %3
  %.pre-phi14 = phi i1 [ %.pre13, %._crit_edge ], [ %7, %3 ]
  %.pre-phi = phi i1 [ %.pre12, %._crit_edge ], [ %5, %3 ]
  %17 = xor i1 %.pre-phi14, true
  %18 = select i1 %.pre-phi, i1 true, i1 %17
  br i1 %18, label %19, label %.loopexit, !prof !9

19:                                               ; preds = %16
  %20 = getelementptr inbounds nuw i8, ptr %0, i64 24
  %21 = load i64, ptr %20, align 8, !tbaa !60
  store i64 %21, ptr %1, align 8, !tbaa !10
  br i1 %2, label %.preheader, label %.loopexit

.preheader:                                       ; preds = %19
  %22 = load ptr, ptr %0, align 8, !tbaa !38
  %.not10 = icmp eq ptr %22, null
  br i1 %.not10, label %.loopexit, label %.lr.ph

.lr.ph:                                           ; preds = %.preheader, %.lr.ph
  %23 = phi i64 [ %27, %.lr.ph ], [ %21, %.preheader ]
  %24 = phi ptr [ %28, %.lr.ph ], [ %22, %.preheader ]
  %25 = getelementptr inbounds nuw i8, ptr %24, i64 24
  %26 = load i64, ptr %25, align 8, !tbaa !60
  %27 = add i64 %23, %26
  store i64 %27, ptr %1, align 8, !tbaa !10
  %28 = load ptr, ptr %24, align 8, !tbaa !38
  %.not = icmp eq ptr %28, null
  br i1 %.not, label %.loopexit, label %.lr.ph, !llvm.loop !100

.loopexit:                                        ; preds = %.lr.ph, %.preheader, %12, %19, %16
  %.0 = phi i32 [ -1, %12 ], [ 0, %19 ], [ 0, %16 ], [ 0, %.preheader ], [ 0, %.lr.ph ]
  ret i32 %.0
}